; Function Attrs: nounwind uwtable
define dso_local range(i32 -1, 1) i32 @PyDict_SetItemString(ptr noundef %0, ptr noundef %1, ptr noundef %2) local_unnamed_addr #0 {
  %4 = alloca ptr, align 8
  call void @llvm.lifetime.start.p0(i64 8, ptr nonnull %4) #23
  %5 = tail call ptr @PyUnicode_FromString(ptr noundef %1) #23
  store ptr %5, ptr %4, align 8, !tbaa !64
  %6 = icmp eq ptr %5, null
  br i1 %6, label %Py_DECREF.exit, label %7

7:                                                ; preds = %3
  %8 = tail call align 8 ptr @llvm.threadlocal.address.p0(ptr align 8 @_Py_tss_tstate)
  %9 = load ptr, ptr %8, align 8, !tbaa !4
  %10 = getelementptr inbounds nuw i8, ptr %9, i64 16
  %11 = load ptr, ptr %10, align 8, !tbaa !9
  call void @_PyUnicode_InternImmortal(ptr noundef %11, ptr noundef nonnull %4) #23
  %12 = load ptr, ptr %4, align 8, !tbaa !64
  %13 = getelementptr i8, ptr %0, i64 8
  %.val.i = load ptr, ptr %13, align 8, !tbaa !25
  %14 = getelementptr i8, ptr %.val.i, i64 168
  %.val4.i = load i64, ptr %14, align 8, !tbaa !28
  %15 = and i64 %.val4.i, 536870912
  %.not.i5 = icmp eq i64 %15, 0
  br i1 %.not.i5, label %16, label %17

16:                                               ; preds = %7
  call void @_PyErr_BadInternalCall(ptr noundef nonnull @.str.3, i32 noundef 2617) #23
  br label %PyDict_SetItem.exit

17:                                               ; preds = %7
  %18 = load i32, ptr %12, align 8, !tbaa !41
  %19 = icmp slt i32 %18, 0
  br i1 %19, label %_Py_NewRef.exit.i, label %20

20:                                               ; preds = %17
  %21 = add nuw i32 %18, 1
  store i32 %21, ptr %12, align 8, !tbaa !41
  br label %_Py_NewRef.exit.i

_Py_NewRef.exit.i:                                ; preds = %20, %17
  %22 = load i32, ptr %2, align 8, !tbaa !41
  %23 = icmp slt i32 %22, 0
  br i1 %23, label %_Py_NewRef.exit5.i, label %24

24:                                               ; preds = %_Py_NewRef.exit.i
  %25 = add nuw i32 %22, 1
  store i32 %25, ptr %2, align 8, !tbaa !41
  br label %_Py_NewRef.exit5.i

_Py_NewRef.exit5.i:                               ; preds = %24, %_Py_NewRef.exit.i
  %26 = call fastcc range(i32 -1, 1) i32 @setitem_take2_lock_held(ptr noundef nonnull %0, ptr noundef nonnull %12, ptr noundef nonnull %2)
  br label %PyDict_SetItem.exit

PyDict_SetItem.exit:                              ; preds = %16, %_Py_NewRef.exit5.i
  %.0.i = phi i32 [ %26, %_Py_NewRef.exit5.i ], [ -1, %16 ]
  %27 = load ptr, ptr %4, align 8, !tbaa !64
  %28 = load i32, ptr %27, align 8, !tbaa !41
  %.not.i = icmp sgt i32 %28, -1
  br i1 %.not.i, label %29, label %Py_DECREF.exit

29:                                               ; preds = %PyDict_SetItem.exit
  %30 = add nsw i32 %28, -1
  store i32 %30, ptr %27, align 8, !tbaa !41
  %31 = icmp eq i32 %30, 0
  br i1 %31, label %32, label %Py_DECREF.exit

32:                                               ; preds = %29
  call void @_Py_Dealloc(ptr noundef nonnull %27) #23
  br label %Py_DECREF.exit

Py_DECREF.exit:                                   ; preds = %32, %29, %PyDict_SetItem.exit, %3
  %.0 = phi i32 [ -1, %3 ], [ %.0.i, %PyDict_SetItem.exit ], [ %.0.i, %29 ], [ %.0.i, %32 ]
  call void @llvm.lifetime.end.p0(i64 8, ptr nonnull %4) #23
  ret i32 %.0
}